target datalayout = "e-m:e-p270:32:32-p271:32:32-p272:64:64-i64:64-i128:128-f80:128-n8:16:32:64-S128"
target triple = "x86_64-pc-linux-gnu"

%struct.AVChannelLayout = type { i32, i32, %union.anon, ptr }
%union.anon = type { i64 }
%struct.softfloat = type { i32, i32 }
%struct.AVCodecContext = type { ptr, i32, i32, ptr, i32, i32, ptr, ptr, ptr, i64, i32, i32, ptr, i32, %struct.AVRational, %struct.AVRational, %struct.AVRational, i32, i32, i32, i32, i32, %struct.AVRational, i32, i32, i32, i32, i32, i32, i32, i32, i32, i32, i32, ptr, ptr, i32, float, float, float, float, float, float, float, float, float, i32, i32, i32, i32, i32, i32, i32, i32, i32, i32, i32, i32, ptr, ptr, ptr, i32, i32, i32, i32, i32, i32, i32, i32, i32, i32, %struct.AVChannelLayout, i32, i32, i32, i32, i32, i32, i32, i32, ptr, i32, i32, i32, float, float, i32, i32, i32, i32, i32, ptr, i64, i64, float, float, i32, i32, ptr, ptr, i32, i32, i32, i32, i32, ptr, ptr, ptr, ptr, i32, i32, [8 x i64], i32, i32, i32, i32, i32, i32, i32, ptr, ptr, i32, i32, i32, i32, i32, i32, i32, i32, i32, i32, ptr, ptr, i32, i32, ptr, ptr, ptr, ptr, i32, i32, i64, i32, i32, i64, ptr, i64, ptr, i32, ptr, i32 }
%struct.AVRational = type { i32, i32 }
%struct.DCAEncContext = type { ptr, %struct.PutBitContext, %struct.DCAADPCMEncContext, ptr, ptr, %struct.CompressionOptions, i32, i32, i32, i32, i32, i32, i32, i32, ptr, ptr, i32, %struct.softfloat, i32, ptr, [6 x [32 x i32]], [6 x [32 x [8 x i32]]], [6 x [512 x i32]], [6 x [32 x ptr]], [6 x [32 x [16 x i32]]], [6 x [32 x i32]], [6 x [32 x i32]], [8 x i32], [2 x [256 x i32]], [6 x i32], [6 x [32 x i32]], [6 x [32 x i32]], [6 x [32 x %struct.softfloat]], [6 x [10 x i32]], [256 x i32], [32 x i32], i32, i32, i32, i32, [2048 x i32], [2 x [512 x i32]], [2 x [8 x i32]], [9 x [25 x [256 x i32]]], [256 x i32], [2048 x i32], [512 x i32] }
%struct.PutBitContext = type { i32, i32, ptr, ptr, ptr }
%struct.DCAADPCMEncContext = type { ptr }
%struct.CompressionOptions = type { i32 }

; Function Attrs: nounwind uwtable
define internal void @subband_bufer_free(ptr noundef %0) #1 {
  %2 = alloca ptr, align 8
  %3 = alloca ptr, align 8
  store ptr %0, ptr %2, align 8, !tbaa !29
  %4 = load ptr, ptr %2, align 8, !tbaa !29
  %5 = getelementptr inbounds nuw %struct.DCAEncContext, ptr %4, i32 0, i32 23
  %6 = getelementptr inbounds [6 x [32 x ptr]], ptr %5, i64 0, i64 0
  %7 = getelementptr inbounds [32 x ptr], ptr %6, i64 0, i64 0
  %8 = load ptr, ptr %7, align 8, !tbaa !85
  %9 = icmp ne ptr %8, null
  br i1 %9, label %10, label %22

10:                                               ; preds = %1
  call void @llvm.lifetime.start.p0(i64 8, ptr %3) #12
  %11 = load ptr, ptr %2, align 8, !tbaa !29
  %12 = getelementptr inbounds nuw %struct.DCAEncContext, ptr %11, i32 0, i32 23
  %13 = getelementptr inbounds [6 x [32 x ptr]], ptr %12, i64 0, i64 0
  %14 = getelementptr inbounds [32 x ptr], ptr %13, i64 0, i64 0
  %15 = load ptr, ptr %14, align 8, !tbaa !85
  %16 = getelementptr inbounds i32, ptr %15, i64 -4
  store ptr %16, ptr %3, align 8, !tbaa !85
  %17 = load ptr, ptr %3, align 8, !tbaa !85
  call void @av_free(ptr noundef %17)
  %18 = load ptr, ptr %2, align 8, !tbaa !29
  %19 = getelementptr inbounds nuw %struct.DCAEncContext, ptr %18, i32 0, i32 23
  %20 = getelementptr inbounds [6 x [32 x ptr]], ptr %19, i64 0, i64 0
  %21 = getelementptr inbounds [32 x ptr], ptr %20, i64 0, i64 0
  store ptr null, ptr %21, align 8, !tbaa !85
  call void @llvm.lifetime.end.p0(i64 8, ptr %3) #12
  br label %22

22:                                               ; preds = %10, %1
  ret void
}

; Function Attrs: cold nounwind optsize uwtable
define internal i32 @encode_close(ptr noundef %0) #0 {
  %2 = alloca ptr, align 8
  %3 = alloca ptr, align 8
  store ptr %0, ptr %2, align 8, !tbaa !4
  call void @llvm.lifetime.start.p0(i64 8, ptr %3) #12
  %4 = load ptr, ptr %2, align 8, !tbaa !4
  %5 = getelementptr inbounds nuw %struct.AVCodecContext, ptr %4, i32 0, i32 6
  %6 = load ptr, ptr %5, align 8, !tbaa !9
  store ptr %6, ptr %3, align 8, !tbaa !29
  %7 = load ptr, ptr %3, align 8, !tbaa !29
  %8 = getelementptr inbounds nuw %struct.DCAEncContext, ptr %7, i32 0, i32 3
  call void @av_tx_uninit(ptr noundef %8)
  %9 = load ptr, ptr %3, align 8, !tbaa !29
  call void @subband_bufer_free(ptr noundef %9)
  %10 = load ptr, ptr %3, align 8, !tbaa !29
  %11 = getelementptr inbounds nuw %struct.DCAEncContext, ptr %10, i32 0, i32 2
  call void @ff_dcaadpcm_free(ptr noundef %11) #13
  call void @llvm.lifetime.end.p0(i64 8, ptr %3) #12
  ret i32 0
}