; Function Attrs: cold nounwind optsize uwtable
define internal noundef i32 @encode_close(ptr noundef readonly captures(none) %0) #0 {
  %2 = getelementptr inbounds nuw i8, ptr %0, i64 32
  %3 = load ptr, ptr %2, align 8, !tbaa !4
  %4 = getelementptr inbounds nuw i8, ptr %3, i64 48
  tail call void @av_tx_uninit(ptr noundef nonnull %4) #11
  %5 = getelementptr inbounds nuw i8, ptr %3, i64 19344
  %6 = load ptr, ptr %5, align 8, !tbaa !29
  %.not.i = icmp eq ptr %6, null
  br i1 %.not.i, label %subband_bufer_free.exit, label %7

7:                                                ; preds = %1
  %8 = getelementptr inbounds i8, ptr %6, i64 -16
  tail call void @av_free(ptr noundef nonnull %8) #11
  store ptr null, ptr %5, align 8, !tbaa !29
  br label %subband_bufer_free.exit

subband_bufer_free.exit:                          ; preds = %1, %7
  %9 = getelementptr inbounds nuw i8, ptr %3, i64 40
  tail call void @ff_dcaadpcm_free(ptr noundef nonnull %9) #12
  ret i32 0
}